target datalayout = "e-m:e-p270:32:32-p271:32:32-p272:64:64-i64:64-i128:128-f80:128-n8:16:32:64-S128"
target triple = "x86_64-unknown-linux-gnu"

%"class.re2::RE2::Options" = type <{ i64, i32, i8, i8, i8, i8, i8, i8, i8, i8, i8, i8, i8, i8 }>

; Function Attrs: mustprogress nounwind uwtable
define void @_ZN3re23RE27OptionsC2ENS0_13CannedOptionsE(ptr noundef nonnull align 8 dereferenceable(23) %this, i32 noundef %opt) unnamed_addr #0 align 2 {
entry:
  %this.addr = alloca ptr, align 8
  %opt.addr = alloca i32, align 4
  store ptr %this, ptr %this.addr, align 8
  store i32 %opt, ptr %opt.addr, align 4
  %this1 = load ptr, ptr %this.addr, align 8
  %max_mem_ = getelementptr inbounds %"class.re2::RE2::Options", ptr %this1, i32 0, i32 0
  store i64 8388608, ptr %max_mem_, align 8
  %encoding_ = getelementptr inbounds %"class.re2::RE2::Options", ptr %this1, i32 0, i32 1
  %0 = load i32, ptr %opt.addr, align 4
  %cmp = icmp eq i32 %0, 1
  %cond = select i1 %cmp, i32 2, i32 1
  store i32 %cond, ptr %encoding_, align 8
  %posix_syntax_ = getelementptr inbounds %"class.re2::RE2::Options", ptr %this1, i32 0, i32 2
  %1 = load i32, ptr %opt.addr, align 4
  %cmp2 = icmp eq i32 %1, 2
  %frombool = zext i1 %cmp2 to i8
  store i8 %frombool, ptr %posix_syntax_, align 4
  %longest_match_ = getelementptr inbounds %"class.re2::RE2::Options", ptr %this1, i32 0, i32 3
  %2 = load i32, ptr %opt.addr, align 4
  %cmp3 = icmp eq i32 %2, 2
  %frombool4 = zext i1 %cmp3 to i8
  store i8 %frombool4, ptr %longest_match_, align 1
  %log_errors_ = getelementptr inbounds %"class.re2::RE2::Options", ptr %this1, i32 0, i32 4
  %3 = load i32, ptr %opt.addr, align 4
  %cmp5 = icmp ne i32 %3, 3
  %frombool6 = zext i1 %cmp5 to i8
  store i8 %frombool6, ptr %log_errors_, align 2
  %literal_ = getelementptr inbounds %"class.re2::RE2::Options", ptr %this1, i32 0, i32 5
  store i8 0, ptr %literal_, align 1
  %never_nl_ = getelementptr inbounds %"class.re2::RE2::Options", ptr %this1, i32 0, i32 6
  store i8 0, ptr %never_nl_, align 8
  %dot_nl_ = getelementptr inbounds %"class.re2::RE2::Options", ptr %this1, i32 0, i32 7
  store i8 0, ptr %dot_nl_, align 1
  %never_capture_ = getelementptr inbounds %"class.re2::RE2::Options", ptr %this1, i32 0, i32 8
  store i8 0, ptr %never_capture_, align 2
  %case_sensitive_ = getelementptr inbounds %"class.re2::RE2::Options", ptr %this1, i32 0, i32 9
  store i8 1, ptr %case_sensitive_, align 1
  %perl_classes_ = getelementptr inbounds %"class.re2::RE2::Options", ptr %this1, i32 0, i32 10
  store i8 0, ptr %perl_classes_, align 4
  %word_boundary_ = getelementptr inbounds %"class.re2::RE2::Options", ptr %this1, i32 0, i32 11
  store i8 0, ptr %word_boundary_, align 1
  %one_line_ = getelementptr inbounds %"class.re2::RE2::Options", ptr %this1, i32 0, i32 12
  store i8 0, ptr %one_line_, align 2
  ret void
}