; Function Attrs: mustprogress nofree norecurse nosync nounwind willreturn memory(argmem: write) uwtable
define void @_ZN3re23RE27OptionsC2ENS0_13CannedOptionsE(ptr noundef nonnull writeonly align 8 captures(none) dereferenceable(23) initializes((0, 23)) %this, i32 noundef %opt) unnamed_addr #1 align 2 {
entry:
  store i64 8388608, ptr %this, align 8
  %encoding_ = getelementptr inbounds nuw i8, ptr %this, i64 8
  %cmp = icmp eq i32 %opt, 1
  %cond = select i1 %cmp, i32 2, i32 1
  store i32 %cond, ptr %encoding_, align 8
  %posix_syntax_ = getelementptr inbounds nuw i8, ptr %this, i64 12
  %cmp2 = icmp eq i32 %opt, 2
  %frombool = zext i1 %cmp2 to i8
  store i8 %frombool, ptr %posix_syntax_, align 4
  %longest_match_ = getelementptr inbounds nuw i8, ptr %this, i64 13
  store i8 %frombool, ptr %longest_match_, align 1
  %log_errors_ = getelementptr inbounds nuw i8, ptr %this, i64 14
  %cmp5 = icmp ne i32 %opt, 3
  %frombool6 = zext i1 %cmp5 to i8
  store i8 %frombool6, ptr %log_errors_, align 2
  %literal_ = getelementptr inbounds nuw i8, ptr %this, i64 15
  %case_sensitive_ = getelementptr inbounds nuw i8, ptr %this, i64 19
  store i32 0, ptr %literal_, align 1
  store i8 1, ptr %case_sensitive_, align 1
  %perl_classes_ = getelementptr inbounds nuw i8, ptr %this, i64 20
  store i8 0, ptr %perl_classes_, align 4
  %word_boundary_ = getelementptr inbounds nuw i8, ptr %this, i64 21
  store i8 0, ptr %word_boundary_, align 1
  %one_line_ = getelementptr inbounds nuw i8, ptr %this, i64 22
  store i8 0, ptr %one_line_, align 2
  ret void
}